; Function Attrs: nounwind uwtable
define internal range(i32 0, 2) i32 @siv_stream_final(ptr noundef %0, ptr noundef %1, ptr noundef writeonly captures(address_is_null) %2, i64 %3) #0 {
  %5 = tail call i32 @ossl_prov_is_running() #4
  %.not = icmp eq i32 %5, 0
  br i1 %.not, label %14, label %6

6:                                                ; preds = %4
  %7 = getelementptr inbounds nuw i8, ptr %0, i64 104
  %8 = load ptr, ptr %7, align 8, !tbaa !19
  %9 = getelementptr inbounds nuw i8, ptr %8, i64 8
  %10 = load ptr, ptr %9, align 8, !tbaa !26
  %11 = tail call i32 %10(ptr noundef %0, ptr noundef %1, ptr noundef null, i64 noundef 0) #4
  %.not7 = icmp eq i32 %11, 0
  br i1 %.not7, label %14, label %12

12:                                               ; preds = %6
  %.not8 = icmp eq ptr %2, null
  br i1 %.not8, label %14, label %13

13:                                               ; preds = %12
  store i64 0, ptr %2, align 8, !tbaa !25
  br label %14

14:                                               ; preds = %12, %13, %6, %4
  %.0 = phi i32 [ 0, %4 ], [ 0, %6 ], [ 1, %13 ], [ 1, %12 ]
  ret i32 %.0
}